target datalayout = "e-m:e-p270:32:32-p271:32:32-p272:64:64-i64:64-i128:128-f80:128-n8:16:32:64-S128"
target triple = "x86_64-unknown-linux-gnu"

%class.svector.9 = type { %class.vector.10 }
%class.vector.10 = type { ptr }
%"class.sat::anf_simplifier" = type { ptr, %"struct.sat::anf_simplifier::config", %class.svector.17, %"struct.sat::anf_simplifier::stats", %class.statistics, %class.svector.9, i32, %class.svector.17 }
%"struct.sat::anf_simplifier::config" = type { i32, i32, i8, i8, i8, i8 }
%"struct.sat::anf_simplifier::stats" = type { i32, i32, i32, i32, i32, i32 }
%class.statistics = type { %class.svector.19, %class.svector.21 }
%class.svector.19 = type { %class.vector.20 }
%class.vector.20 = type { ptr }
%class.svector.21 = type { %class.vector.22 }
%class.vector.22 = type { ptr }
%class.svector.17 = type { %class.vector.18 }
%class.vector.18 = type { ptr }

@.str.4 = private unnamed_addr constant [14 x i8] c"sat-anf.units\00", align 1
@.str.5 = private unnamed_addr constant [12 x i8] c"sat-anf.eqs\00", align 1
@.str.6 = private unnamed_addr constant [13 x i8] c"sat-anf.ands\00", align 1
@.str.7 = private unnamed_addr constant [13 x i8] c"sat-anf.ites\00", align 1
@.str.8 = private unnamed_addr constant [13 x i8] c"sat-anf.xors\00", align 1
@.str.9 = private unnamed_addr constant [20 x i8] c"sat-anf.phase_flips\00", align 1

; Function Attrs: mustprogress uwtable
define hidden void @_ZN3sat14anf_simplifier15save_statisticsERN2dd6solverE(ptr noundef nonnull align 8 dereferenceable(96) %this, ptr noundef nonnull align 8 dereferenceable(208) %solver) #5 align 2 {
entry:
  %this.addr = alloca ptr, align 8
  %solver.addr = alloca ptr, align 8
  store ptr %this, ptr %this.addr, align 8
  store ptr %solver, ptr %solver.addr, align 8
  %this1 = load ptr, ptr %this.addr, align 8
  %0 = load ptr, ptr %solver.addr, align 8
  %m_st = getelementptr inbounds %"class.sat::anf_simplifier", ptr %this1, i32 0, i32 4
  call void @_ZNK2dd6solver18collect_statisticsER10statistics(ptr noundef nonnull align 8 dereferenceable(208) %0, ptr noundef nonnull align 8 dereferenceable(16) %m_st)
  %m_st2 = getelementptr inbounds %"class.sat::anf_simplifier", ptr %this1, i32 0, i32 4
  %m_stats = getelementptr inbounds %"class.sat::anf_simplifier", ptr %this1, i32 0, i32 3
  %m_num_units = getelementptr inbounds %"struct.sat::anf_simplifier::stats", ptr %m_stats, i32 0, i32 0
  %1 = load i32, ptr %m_num_units, align 8
  call void @_ZN10statistics6updateEPKcj(ptr noundef nonnull align 8 dereferenceable(16) %m_st2, ptr noundef @.str.4, i32 noundef %1)
  %m_st3 = getelementptr inbounds %"class.sat::anf_simplifier", ptr %this1, i32 0, i32 4
  %m_stats4 = getelementptr inbounds %"class.sat::anf_simplifier", ptr %this1, i32 0, i32 3
  %m_num_eqs = getelementptr inbounds %"struct.sat::anf_simplifier::stats", ptr %m_stats4, i32 0, i32 1
  %2 = load i32, ptr %m_num_eqs, align 4
  call void @_ZN10statistics6updateEPKcj(ptr noundef nonnull align 8 dereferenceable(16) %m_st3, ptr noundef @.str.5, i32 noundef %2)
  %m_st5 = getelementptr inbounds %"class.sat::anf_simplifier", ptr %this1, i32 0, i32 4
  %m_stats6 = getelementptr inbounds %"class.sat::anf_simplifier", ptr %this1, i32 0, i32 3
  %m_num_aigs = getelementptr inbounds %"struct.sat::anf_simplifier::stats", ptr %m_stats6, i32 0, i32 2
  %3 = load i32, ptr %m_num_aigs, align 8
  call void @_ZN10statistics6updateEPKcj(ptr noundef nonnull align 8 dereferenceable(16) %m_st5, ptr noundef @.str.6, i32 noundef %3)
  %m_st7 = getelementptr inbounds %"class.sat::anf_simplifier", ptr %this1, i32 0, i32 4
  %m_stats8 = getelementptr inbounds %"class.sat::anf_simplifier", ptr %this1, i32 0, i32 3
  %m_num_ifs = getelementptr inbounds %"struct.sat::anf_simplifier::stats", ptr %m_stats8, i32 0, i32 4
  %4 = load i32, ptr %m_num_ifs, align 8
  call void @_ZN10statistics6updateEPKcj(ptr noundef nonnull align 8 dereferenceable(16) %m_st7, ptr noundef @.str.7, i32 noundef %4)
  %m_st9 = getelementptr inbounds %"class.sat::anf_simplifier", ptr %this1, i32 0, i32 4
  %m_stats10 = getelementptr inbounds %"class.sat::anf_simplifier", ptr %this1, i32 0, i32 3
  %m_num_xors = getelementptr inbounds %"struct.sat::anf_simplifier::stats", ptr %m_stats10, i32 0, i32 3
  %5 = load i32, ptr %m_num_xors, align 4
  call void @_ZN10statistics6updateEPKcj(ptr noundef nonnull align 8 dereferenceable(16) %m_st9, ptr noundef @.str.8, i32 noundef %5)
  %m_st11 = getelementptr inbounds %"class.sat::anf_simplifier", ptr %this1, i32 0, i32 4
  %m_stats12 = getelementptr inbounds %"class.sat::anf_simplifier", ptr %this1, i32 0, i32 3
  %m_num_phase_flips = getelementptr inbounds %"struct.sat::anf_simplifier::stats", ptr %m_stats12, i32 0, i32 5
  %6 = load i32, ptr %m_num_phase_flips, align 4
  call void @_ZN10statistics6updateEPKcj(ptr noundef nonnull align 8 dereferenceable(16) %m_st11, ptr noundef @.str.9, i32 noundef %6)
  ret void
}