; Function Attrs: mustprogress uwtable
define hidden void @_ZN3sat14anf_simplifier15save_statisticsERN2dd6solverE(ptr noundef nonnull align 8 dereferenceable(96) %this, ptr noundef nonnull align 8 dereferenceable(208) %solver) local_unnamed_addr #3 align 2 {
entry:
  %m_st = getelementptr inbounds i8, ptr %this, i64 56
  tail call void @_ZNK2dd6solver18collect_statisticsER10statistics(ptr noundef nonnull align 8 dereferenceable(208) %solver, ptr noundef nonnull align 8 dereferenceable(16) %m_st)
  %m_stats = getelementptr inbounds i8, ptr %this, i64 32
  %0 = load i32, ptr %m_stats, align 8
  tail call void @_ZN10statistics6updateEPKcj(ptr noundef nonnull align 8 dereferenceable(16) %m_st, ptr noundef nonnull @.str.4, i32 noundef %0)
  %m_num_eqs = getelementptr inbounds i8, ptr %this, i64 36
  %1 = load i32, ptr %m_num_eqs, align 4
  tail call void @_ZN10statistics6updateEPKcj(ptr noundef nonnull align 8 dereferenceable(16) %m_st, ptr noundef nonnull @.str.5, i32 noundef %1)
  %m_num_aigs = getelementptr inbounds i8, ptr %this, i64 40
  %2 = load i32, ptr %m_num_aigs, align 8
  tail call void @_ZN10statistics6updateEPKcj(ptr noundef nonnull align 8 dereferenceable(16) %m_st, ptr noundef nonnull @.str.6, i32 noundef %2)
  %m_num_ifs = getelementptr inbounds i8, ptr %this, i64 48
  %3 = load i32, ptr %m_num_ifs, align 8
  tail call void @_ZN10statistics6updateEPKcj(ptr noundef nonnull align 8 dereferenceable(16) %m_st, ptr noundef nonnull @.str.7, i32 noundef %3)
  %m_num_xors = getelementptr inbounds i8, ptr %this, i64 44
  %4 = load i32, ptr %m_num_xors, align 4
  tail call void @_ZN10statistics6updateEPKcj(ptr noundef nonnull align 8 dereferenceable(16) %m_st, ptr noundef nonnull @.str.8, i32 noundef %4)
  %m_num_phase_flips = getelementptr inbounds i8, ptr %this, i64 52
  %5 = load i32, ptr %m_num_phase_flips, align 4
  tail call void @_ZN10statistics6updateEPKcj(ptr noundef nonnull align 8 dereferenceable(16) %m_st, ptr noundef nonnull @.str.9, i32 noundef %5)
  ret void
}